target datalayout = "e-m:e-p270:32:32-p271:32:32-p272:64:64-i64:64-i128:128-f80:128-n8:16:32:64-S128"
target triple = "x86_64-pc-linux-gnu"

%struct.Rwr_Man_t_ = type { i32, ptr, ptr, ptr, ptr, ptr, ptr, ptr, ptr, ptr, ptr, ptr, i32, i32, i32, i32, i32, ptr, ptr, ptr, ptr, ptr, i32, i32, i32, i32, i32, [222 x i32], i32, i32, i32, i64, i64, i64, i64, i64, i64, i64 }
%struct.Vec_Ptr_t_ = type { i32, i32, ptr }
%struct.Rwr_Node_t_ = type <{ i32, i32, i16, i16, i16, i32, [6 x i8], ptr, ptr, ptr }>
%struct.timespec = type { i64, i64 }

@.str = private unnamed_addr constant [19 x i8] c"npn4_aig_array.txt\00", align 1
@.str.1 = private unnamed_addr constant [2 x i8] c"w\00", align 1
@.str.2 = private unnamed_addr constant [47 x i8] c"static unsigned short s_RwtAigSubgraphs[] = \0A{\00", align 1
@.str.3 = private unnamed_addr constant [6 x i8] c"\0A    \00", align 1
@.str.4 = private unnamed_addr constant [2 x i8] c",\00", align 1
@.str.5 = private unnamed_addr constant [3 x i8] c", \00", align 1
@.str.6 = private unnamed_addr constant [6 x i8] c" \0A};\0A\00", align 1
@.str.7 = private unnamed_addr constant [35 x i8] c"The number of nodes saved = %d.   \00", align 1
@.str.8 = private unnamed_addr constant [5 x i8] c"%s =\00", align 1
@.str.9 = private unnamed_addr constant [7 x i8] c"Saving\00", align 1
@.str.10 = private unnamed_addr constant [11 x i8] c"%9.2f sec\0A\00", align 1

; Function Attrs: inlinehint nounwind uwtable
define internal i32 @Rwr_IsComplement(ptr noundef %0) #4 {
  %2 = alloca ptr, align 8
  store ptr %0, ptr %2, align 8, !tbaa !28
  %3 = load ptr, ptr %2, align 8, !tbaa !28
  %4 = ptrtoint ptr %3 to i64
  %5 = and i64 %4, 1
  %6 = trunc i64 %5 to i32
  ret i32 %6
}

; Function Attrs: inlinehint nounwind uwtable
define internal ptr @Rwr_Regular(ptr noundef %0) #4 {
  %2 = alloca ptr, align 8
  store ptr %0, ptr %2, align 8, !tbaa !28
  %3 = load ptr, ptr %2, align 8, !tbaa !28
  %4 = ptrtoint ptr %3 to i64
  %5 = and i64 %4, -2
  %6 = inttoptr i64 %5 to ptr
  ret ptr %6
}

; Function Attrs: inlinehint nounwind uwtable
define internal i64 @Abc_Clock() #4 {
  %1 = alloca i64, align 8
  %2 = alloca %struct.timespec, align 8
  %3 = alloca i32, align 4
  %4 = alloca i64, align 8
  call void @llvm.lifetime.start.p0(i64 16, ptr %2) #9
  %5 = call i32 @clock_gettime(i32 noundef 1, ptr noundef %2) #9
  %6 = icmp slt i32 %5, 0
  br i1 %6, label %7, label %8

7:                                                ; preds = %0
  store i64 -1, ptr %1, align 8
  store i32 1, ptr %3, align 4
  br label %19

8:                                                ; preds = %0
  call void @llvm.lifetime.start.p0(i64 8, ptr %4) #9
  %9 = getelementptr inbounds nuw %struct.timespec, ptr %2, i32 0, i32 0
  %10 = load i64, ptr %9, align 8, !tbaa !51
  %11 = mul nsw i64 %10, 1000000
  store i64 %11, ptr %4, align 8, !tbaa !8
  %12 = getelementptr inbounds nuw %struct.timespec, ptr %2, i32 0, i32 1
  %13 = load i64, ptr %12, align 8, !tbaa !53
  %14 = mul nsw i64 %13, 1000000
  %15 = sdiv i64 %14, 1000000000
  %16 = load i64, ptr %4, align 8, !tbaa !8
  %17 = add nsw i64 %16, %15
  store i64 %17, ptr %4, align 8, !tbaa !8
  %18 = load i64, ptr %4, align 8, !tbaa !8
  store i64 %18, ptr %1, align 8
  store i32 1, ptr %3, align 4
  call void @llvm.lifetime.end.p0(i64 8, ptr %4) #9
  br label %19

19:                                               ; preds = %8, %7
  call void @llvm.lifetime.end.p0(i64 16, ptr %2) #9
  %20 = load i64, ptr %1, align 8
  ret i64 %20
}

; Function Attrs: nounwind uwtable
define void @Rwr_ManWriteToArray(ptr noundef %0) #0 {
  %2 = alloca ptr, align 8
  %3 = alloca ptr, align 8
  %4 = alloca ptr, align 8
  %5 = alloca i32, align 4
  %6 = alloca i32, align 4
  %7 = alloca i32, align 4
  %8 = alloca i32, align 4
  %9 = alloca i64, align 8
  store ptr %0, ptr %2, align 8, !tbaa !3
  call void @llvm.lifetime.start.p0(i64 8, ptr %3) #9
  call void @llvm.lifetime.start.p0(i64 8, ptr %4) #9
  call void @llvm.lifetime.start.p0(i64 4, ptr %5) #9
  call void @llvm.lifetime.start.p0(i64 4, ptr %6) #9
  call void @llvm.lifetime.start.p0(i64 4, ptr %7) #9
  call void @llvm.lifetime.start.p0(i64 4, ptr %8) #9
  call void @llvm.lifetime.start.p0(i64 8, ptr %9) #9
  %10 = call i64 @Abc_Clock()
  store i64 %10, ptr %9, align 8, !tbaa !8
  %11 = load ptr, ptr %2, align 8, !tbaa !3
  %12 = getelementptr inbounds nuw %struct.Rwr_Man_t_, ptr %11, i32 0, i32 8
  %13 = load ptr, ptr %12, align 8, !tbaa !10
  %14 = getelementptr inbounds nuw %struct.Vec_Ptr_t_, ptr %13, i32 0, i32 1
  %15 = load i32, ptr %14, align 4, !tbaa !21
  %16 = sub nsw i32 %15, 5
  store i32 %16, ptr %8, align 4, !tbaa !23
  %17 = call noalias ptr @fopen(ptr noundef @.str, ptr noundef @.str.1)
  store ptr %17, ptr %3, align 8, !tbaa !24
  %18 = load ptr, ptr %3, align 8, !tbaa !24
  %19 = call i32 (ptr, ptr, ...) @fprintf(ptr noundef %18, ptr noundef @.str.2) #9
  store i32 0, ptr %7, align 4, !tbaa !23
  br label %20

20:                                               ; preds = %79, %1
  %21 = load i32, ptr %7, align 4, !tbaa !23
  %22 = load i32, ptr %8, align 4, !tbaa !23
  %23 = icmp slt i32 %21, %22
  br i1 %23, label %24, label %82

24:                                               ; preds = %20
  %25 = load i32, ptr %7, align 4, !tbaa !23
  %26 = srem i32 %25, 5
  %27 = icmp eq i32 %26, 0
  br i1 %27, label %28, label %31

28:                                               ; preds = %24
  %29 = load ptr, ptr %3, align 8, !tbaa !24
  %30 = call i32 (ptr, ptr, ...) @fprintf(ptr noundef %29, ptr noundef @.str.3) #9
  br label %31

31:                                               ; preds = %28, %24
  %32 = load ptr, ptr %2, align 8, !tbaa !3
  %33 = getelementptr inbounds nuw %struct.Rwr_Man_t_, ptr %32, i32 0, i32 8
  %34 = load ptr, ptr %33, align 8, !tbaa !10
  %35 = getelementptr inbounds nuw %struct.Vec_Ptr_t_, ptr %34, i32 0, i32 2
  %36 = load ptr, ptr %35, align 8, !tbaa !26
  %37 = load i32, ptr %7, align 4, !tbaa !23
  %38 = add nsw i32 %37, 5
  %39 = sext i32 %38 to i64
  %40 = getelementptr inbounds ptr, ptr %36, i64 %39
  %41 = load ptr, ptr %40, align 8, !tbaa !27
  store ptr %41, ptr %4, align 8, !tbaa !28
  %42 = load ptr, ptr %4, align 8, !tbaa !28
  %43 = getelementptr inbounds nuw %struct.Rwr_Node_t_, ptr %42, i32 0, i32 7
  %44 = load ptr, ptr %43, align 8, !tbaa !30
  %45 = call ptr @Rwr_Regular(ptr noundef %44)
  %46 = getelementptr inbounds nuw %struct.Rwr_Node_t_, ptr %45, i32 0, i32 0
  %47 = load i32, ptr %46, align 8, !tbaa !33
  %48 = shl i32 %47, 1
  %49 = load ptr, ptr %4, align 8, !tbaa !28
  %50 = getelementptr inbounds nuw %struct.Rwr_Node_t_, ptr %49, i32 0, i32 7
  %51 = load ptr, ptr %50, align 8, !tbaa !30
  %52 = call i32 @Rwr_IsComplement(ptr noundef %51)
  %53 = or i32 %48, %52
  store i32 %53, ptr %5, align 4, !tbaa !23
  %54 = load ptr, ptr %4, align 8, !tbaa !28
  %55 = getelementptr inbounds nuw %struct.Rwr_Node_t_, ptr %54, i32 0, i32 8
  %56 = load ptr, ptr %55, align 8, !tbaa !34
  %57 = call ptr @Rwr_Regular(ptr noundef %56)
  %58 = getelementptr inbounds nuw %struct.Rwr_Node_t_, ptr %57, i32 0, i32 0
  %59 = load i32, ptr %58, align 8, !tbaa !33
  %60 = shl i32 %59, 1
  %61 = load ptr, ptr %4, align 8, !tbaa !28
  %62 = getelementptr inbounds nuw %struct.Rwr_Node_t_, ptr %61, i32 0, i32 8
  %63 = load ptr, ptr %62, align 8, !tbaa !34
  %64 = call i32 @Rwr_IsComplement(ptr noundef %63)
  %65 = or i32 %60, %64
  store i32 %65, ptr %6, align 4, !tbaa !23
  %66 = load i32, ptr %5, align 4, !tbaa !23
  %67 = shl i32 %66, 1
  %68 = load ptr, ptr %4, align 8, !tbaa !28
  %69 = getelementptr inbounds nuw %struct.Rwr_Node_t_, ptr %68, i32 0, i32 5
  %70 = load i32, ptr %69, align 2
  %71 = lshr i32 %70, 31
  %72 = or i32 %67, %71
  store i32 %72, ptr %5, align 4, !tbaa !23
  %73 = load ptr, ptr %3, align 8, !tbaa !24
  call void @Extra_PrintHex(ptr noundef %73, ptr noundef %5, i32 noundef 4)
  %74 = load ptr, ptr %3, align 8, !tbaa !24
  %75 = call i32 (ptr, ptr, ...) @fprintf(ptr noundef %74, ptr noundef @.str.4) #9
  %76 = load ptr, ptr %3, align 8, !tbaa !24
  call void @Extra_PrintHex(ptr noundef %76, ptr noundef %6, i32 noundef 4)
  %77 = load ptr, ptr %3, align 8, !tbaa !24
  %78 = call i32 (ptr, ptr, ...) @fprintf(ptr noundef %77, ptr noundef @.str.5) #9
  br label %79

79:                                               ; preds = %31
  %80 = load i32, ptr %7, align 4, !tbaa !23
  %81 = add nsw i32 %80, 1
  store i32 %81, ptr %7, align 4, !tbaa !23
  br label %20, !llvm.loop !35

82:                                               ; preds = %20
  %83 = load i32, ptr %7, align 4, !tbaa !23
  %84 = srem i32 %83, 5
  %85 = icmp eq i32 %84, 0
  br i1 %85, label %86, label %89

86:                                               ; preds = %82
  %87 = load ptr, ptr %3, align 8, !tbaa !24
  %88 = call i32 (ptr, ptr, ...) @fprintf(ptr noundef %87, ptr noundef @.str.3) #9
  br label %89

89:                                               ; preds = %86, %82
  store i32 0, ptr %5, align 4, !tbaa !23
  %90 = load ptr, ptr %3, align 8, !tbaa !24
  call void @Extra_PrintHex(ptr noundef %90, ptr noundef %5, i32 noundef 4)
  %91 = load ptr, ptr %3, align 8, !tbaa !24
  %92 = call i32 (ptr, ptr, ...) @fprintf(ptr noundef %91, ptr noundef @.str.4) #9
  %93 = load ptr, ptr %3, align 8, !tbaa !24
  call void @Extra_PrintHex(ptr noundef %93, ptr noundef %5, i32 noundef 4)
  %94 = load ptr, ptr %3, align 8, !tbaa !24
  %95 = call i32 (ptr, ptr, ...) @fprintf(ptr noundef %94, ptr noundef @.str.6) #9
  %96 = load ptr, ptr %3, align 8, !tbaa !24
  %97 = call i32 @fclose(ptr noundef %96)
  %98 = load i32, ptr %8, align 4, !tbaa !23
  %99 = call i32 (ptr, ...) @printf(ptr noundef @.str.7, i32 noundef %98)
  call void (i32, ptr, ...) @Abc_Print(i32 noundef 1, ptr noundef @.str.8, ptr noundef @.str.9)
  %100 = call i64 @Abc_Clock()
  %101 = load i64, ptr %9, align 8, !tbaa !8
  %102 = sub nsw i64 %100, %101
  %103 = sitofp i64 %102 to double
  %104 = fmul double 1.000000e+00, %103
  %105 = fdiv double %104, 1.000000e+06
  call void (i32, ptr, ...) @Abc_Print(i32 noundef 1, ptr noundef @.str.10, double noundef %105)
  call void @llvm.lifetime.end.p0(i64 8, ptr %9) #9
  call void @llvm.lifetime.end.p0(i64 4, ptr %8) #9
  call void @llvm.lifetime.end.p0(i64 4, ptr %7) #9
  call void @llvm.lifetime.end.p0(i64 4, ptr %6) #9
  call void @llvm.lifetime.end.p0(i64 4, ptr %5) #9
  call void @llvm.lifetime.end.p0(i64 8, ptr %4) #9
  call void @llvm.lifetime.end.p0(i64 8, ptr %3) #9
  ret void
}