; Function Attrs: nounwind uwtable
define void @Rwr_ManWriteToArray(ptr noundef readonly captures(none) %0) local_unnamed_addr #0 {
  %2 = alloca %struct.timespec, align 8
  %3 = alloca %struct.timespec, align 8
  %4 = alloca i32, align 4
  %5 = alloca i32, align 4
  call void @llvm.lifetime.start.p0(i64 4, ptr nonnull %4) #15
  call void @llvm.lifetime.start.p0(i64 4, ptr nonnull %5) #15
  call void @llvm.lifetime.start.p0(i64 16, ptr nonnull %3) #15
  %6 = call i32 @clock_gettime(i32 noundef 1, ptr noundef nonnull %3) #15
  %7 = icmp slt i32 %6, 0
  br i1 %7, label %Abc_Clock.exit, label %8

8:                                                ; preds = %1
  %9 = load i64, ptr %3, align 8, !tbaa !3
  %.neg30 = mul i64 %9, -1000000
  %10 = getelementptr inbounds nuw i8, ptr %3, i64 8
  %11 = load i64, ptr %10, align 8, !tbaa !8
  %.neg = sdiv i64 %11, -1000
  %.neg31 = add i64 %.neg, %.neg30
  br label %Abc_Clock.exit

Abc_Clock.exit:                                   ; preds = %1, %8
  %.0.i.neg = phi i64 [ %.neg31, %8 ], [ 1, %1 ]
  call void @llvm.lifetime.end.p0(i64 16, ptr nonnull %3) #15
  %12 = getelementptr inbounds nuw i8, ptr %0, i64 64
  %13 = load ptr, ptr %12, align 8, !tbaa !9
  %14 = getelementptr inbounds nuw i8, ptr %13, i64 4
  %15 = load i32, ptr %14, align 4, !tbaa !21
  %16 = add i32 %15, -5
  %17 = call noalias ptr @fopen(ptr noundef nonnull @.str, ptr noundef nonnull @.str.1)
  %18 = call i64 @fwrite(ptr nonnull @.str.2, i64 46, i64 1, ptr %17)
  %19 = icmp sgt i32 %15, 5
  br i1 %19, label %.lr.ph.preheader, label %._crit_edge.thread

.lr.ph.preheader:                                 ; preds = %Abc_Clock.exit
  %wide.trip.count = zext nneg i32 %16 to i64
  br label %.lr.ph

.lr.ph:                                           ; preds = %.lr.ph.preheader, %25
  %indvars.iv = phi i64 [ 0, %.lr.ph.preheader ], [ %indvars.iv.next, %25 ]
  %20 = trunc nuw nsw i64 %indvars.iv to i32
  %21 = urem i32 %20, 5
  %22 = icmp eq i32 %21, 0
  br i1 %22, label %23, label %25

23:                                               ; preds = %.lr.ph
  %24 = call i64 @fwrite(ptr nonnull @.str.3, i64 5, i64 1, ptr %17)
  br label %25

25:                                               ; preds = %23, %.lr.ph
  %26 = load ptr, ptr %12, align 8, !tbaa !9
  %27 = getelementptr inbounds nuw i8, ptr %26, i64 8
  %28 = load ptr, ptr %27, align 8, !tbaa !23
  %29 = getelementptr inbounds nuw ptr, ptr %28, i64 %indvars.iv
  %30 = getelementptr inbounds nuw i8, ptr %29, i64 40
  %31 = load ptr, ptr %30, align 8, !tbaa !24
  %32 = getelementptr inbounds nuw i8, ptr %31, i64 24
  %33 = load ptr, ptr %32, align 8, !tbaa !25
  %34 = ptrtoint ptr %33 to i64
  %35 = and i64 %34, -2
  %36 = inttoptr i64 %35 to ptr
  %37 = load i32, ptr %36, align 8, !tbaa !29
  %38 = shl i32 %37, 1
  %39 = trunc i64 %34 to i32
  %40 = and i32 %39, 1
  %41 = or disjoint i32 %40, %38
  store i32 %41, ptr %4, align 4, !tbaa !30
  %42 = getelementptr inbounds nuw i8, ptr %31, i64 32
  %43 = load ptr, ptr %42, align 8, !tbaa !31
  %44 = ptrtoint ptr %43 to i64
  %45 = and i64 %44, -2
  %46 = inttoptr i64 %45 to ptr
  %47 = load i32, ptr %46, align 8, !tbaa !29
  %48 = shl i32 %47, 1
  %49 = trunc i64 %44 to i32
  %50 = and i32 %49, 1
  %51 = or disjoint i32 %50, %48
  store i32 %51, ptr %5, align 4, !tbaa !30
  %52 = getelementptr inbounds nuw i8, ptr %31, i64 14
  %53 = load i32, ptr %52, align 2
  %54 = call i32 @llvm.fshl.i32(i32 %41, i32 %53, i32 1)
  store i32 %54, ptr %4, align 4, !tbaa !30
  call void @Extra_PrintHex(ptr noundef %17, ptr noundef nonnull %4, i32 noundef 4) #15
  %fputc27 = call i32 @fputc(i32 44, ptr %17)
  call void @Extra_PrintHex(ptr noundef %17, ptr noundef nonnull %5, i32 noundef 4) #15
  %55 = call i64 @fwrite(ptr nonnull @.str.5, i64 2, i64 1, ptr %17)
  %indvars.iv.next = add nuw nsw i64 %indvars.iv, 1
  %exitcond.not = icmp eq i64 %indvars.iv.next, %wide.trip.count
  br i1 %exitcond.not, label %._crit_edge, label %.lr.ph, !llvm.loop !32

._crit_edge:                                      ; preds = %25
  %56 = urem i32 %16, 5
  %57 = icmp eq i32 %56, 0
  br i1 %57, label %._crit_edge.thread, label %59

._crit_edge.thread:                               ; preds = %Abc_Clock.exit, %._crit_edge
  %58 = call i64 @fwrite(ptr nonnull @.str.3, i64 5, i64 1, ptr %17)
  br label %59

59:                                               ; preds = %._crit_edge.thread, %._crit_edge
  store i32 0, ptr %4, align 4, !tbaa !30
  call void @Extra_PrintHex(ptr noundef %17, ptr noundef nonnull %4, i32 noundef 4) #15
  %fputc = call i32 @fputc(i32 44, ptr %17)
  call void @Extra_PrintHex(ptr noundef %17, ptr noundef nonnull %4, i32 noundef 4) #15
  %60 = call i64 @fwrite(ptr nonnull @.str.6, i64 5, i64 1, ptr %17)
  %61 = call i32 @fclose(ptr noundef %17)
  %62 = call i32 (ptr, ...) @printf(ptr noundef nonnull dereferenceable(1) @.str.7, i32 noundef %16)
  call void (i32, ptr, ...) @Abc_Print(i32 poison, ptr noundef nonnull @.str.8, ptr noundef nonnull @.str.9)
  call void @llvm.lifetime.start.p0(i64 16, ptr nonnull %2) #15
  %63 = call i32 @clock_gettime(i32 noundef 1, ptr noundef nonnull %2) #15
  %64 = icmp slt i32 %63, 0
  br i1 %64, label %Abc_Clock.exit29, label %65

65:                                               ; preds = %59
  %66 = load i64, ptr %2, align 8, !tbaa !3
  %67 = mul nsw i64 %66, 1000000
  %68 = getelementptr inbounds nuw i8, ptr %2, i64 8
  %69 = load i64, ptr %68, align 8, !tbaa !8
  %70 = sdiv i64 %69, 1000
  %71 = add nsw i64 %70, %67
  br label %Abc_Clock.exit29

Abc_Clock.exit29:                                 ; preds = %59, %65
  %.0.i28 = phi i64 [ %71, %65 ], [ -1, %59 ]
  call void @llvm.lifetime.end.p0(i64 16, ptr nonnull %2) #15
  %72 = add i64 %.0.i28, %.0.i.neg
  %73 = sitofp i64 %72 to double
  %74 = fdiv double %73, 1.000000e+06
  call void (i32, ptr, ...) @Abc_Print(i32 poison, ptr noundef nonnull @.str.10, double noundef %74)
  call void @llvm.lifetime.end.p0(i64 4, ptr nonnull %5) #15
  call void @llvm.lifetime.end.p0(i64 4, ptr nonnull %4) #15
  ret void
}